; Function Attrs: null_pointer_is_valid sspstrong uwtable
define internal void @update_dynamic_union_hf_entry(ptr readnone captures(none) %0, ptr noundef readonly captures(none) %1, ptr noundef captures(none) %2) #0 {
  %4 = getelementptr inbounds nuw i8, ptr %1, i64 28
  %5 = load i32, ptr %4, align 4
  %.not19 = icmp eq i32 %5, 0
  br i1 %.not19, label %._crit_edge, label %.lr.ph

.lr.ph:                                           ; preds = %3
  %6 = getelementptr inbounds nuw i8, ptr %1, i64 32
  br label %7

7:                                                ; preds = %.lr.ph, %27
  %indvars.iv = phi i64 [ 0, %.lr.ph ], [ %indvars.iv.next, %27 ]
  %8 = load i32, ptr %2, align 4
  %9 = load i32, ptr @dynamic_hf_union_size, align 4
  %.not = icmp ult i32 %8, %9
  br i1 %.not, label %10, label %._crit_edge

10:                                               ; preds = %7
  %11 = load ptr, ptr %6, align 8
  %12 = getelementptr %struct._someip_parameter_union_item, ptr %11, i64 %indvars.iv
  %13 = load ptr, ptr @dynamic_hf_union, align 8
  %14 = getelementptr inbounds nuw i8, ptr %12, i64 16
  %15 = load i32, ptr %14, align 8
  %16 = getelementptr inbounds nuw i8, ptr %12, i64 20
  %17 = load i32, ptr %16, align 4
  %18 = getelementptr inbounds nuw i8, ptr %12, i64 8
  %19 = load ptr, ptr %18, align 8
  %20 = getelementptr inbounds nuw i8, ptr %12, i64 32
  %21 = load ptr, ptr %20, align 8
  %22 = tail call fastcc ptr @update_dynamic_hf_entry(ptr noundef %13, i32 noundef %8, i32 noundef %15, i32 noundef %17, ptr noundef %19, ptr noundef %21)
  %23 = getelementptr inbounds nuw i8, ptr %12, i64 24
  store ptr %22, ptr %23, align 8
  %.not16 = icmp eq ptr %22, null
  br i1 %.not16, label %27, label %24

24:                                               ; preds = %10
  %25 = load i32, ptr %2, align 4
  %26 = add i32 %25, 1
  store i32 %26, ptr %2, align 4
  br label %27

27:                                               ; preds = %24, %10
  %indvars.iv.next = add nuw nsw i64 %indvars.iv, 1
  %28 = load i32, ptr %4, align 4
  %29 = zext i32 %28 to i64
  %30 = icmp samesign ult i64 %indvars.iv.next, %29
  br i1 %30, label %7, label %._crit_edge, !llvm.loop !37

._crit_edge:                                      ; preds = %7, %27, %3
  ret void
}